target datalayout = "e-m:e-p270:32:32-p271:32:32-p272:64:64-i64:64-i128:128-f80:128-n8:16:32:64-S128"
target triple = "x86_64-pc-linux-gnu"

%struct.AVCodecContext = type { ptr, i32, i32, ptr, i32, i32, ptr, ptr, ptr, i64, i32, i32, ptr, i32, %struct.AVRational, %struct.AVRational, %struct.AVRational, i32, i32, i32, i32, i32, %struct.AVRational, i32, i32, i32, i32, i32, i32, i32, i32, i32, i32, i32, ptr, ptr, i32, float, float, float, float, float, float, float, float, float, i32, i32, i32, i32, i32, i32, i32, i32, i32, i32, i32, i32, ptr, ptr, ptr, i32, i32, i32, i32, i32, i32, i32, i32, i32, i32, %struct.AVChannelLayout, i32, i32, i32, i32, i32, i32, i32, i32, ptr, i32, i32, i32, float, float, i32, i32, i32, i32, i32, ptr, i64, i64, float, float, i32, i32, ptr, ptr, i32, i32, i32, i32, i32, ptr, ptr, ptr, ptr, i32, i32, [8 x i64], i32, i32, i32, i32, i32, i32, i32, ptr, ptr, i32, i32, i32, i32, i32, i32, i32, i32, i32, i32, ptr, ptr, i32, i32, ptr, ptr, ptr, ptr, i32, i32, i64, i32, i32, i64, ptr, i64, ptr, i32, ptr, i32 }
%struct.AVRational = type { i32, i32 }
%struct.AVChannelLayout = type { i32, i32, %union.anon.1, ptr }
%union.anon.1 = type { i64 }
%struct.PhotoCDContext = type { ptr, i32, %struct.GetByteContext, i32, i32, i32, i32, [256 x i8], [256 x i16], [256 x i8], [3 x %struct.VLC] }
%struct.GetByteContext = type { ptr, ptr, ptr }
%struct.VLC = type { i32, ptr, i32, i32 }

; Function Attrs: cold nounwind optsize uwtable
define internal i32 @photocd_decode_close(ptr noundef %0) #0 {
  %2 = alloca ptr, align 8
  %3 = alloca ptr, align 8
  %4 = alloca i32, align 4
  store ptr %0, ptr %2, align 8, !tbaa !4
  call void @llvm.lifetime.start.p0(i64 8, ptr %3) #12
  %5 = load ptr, ptr %2, align 8, !tbaa !4
  %6 = getelementptr inbounds nuw %struct.AVCodecContext, ptr %5, i32 0, i32 6
  %7 = load ptr, ptr %6, align 8, !tbaa !38
  store ptr %7, ptr %3, align 8, !tbaa !39
  call void @llvm.lifetime.start.p0(i64 4, ptr %4) #12
  store i32 0, ptr %4, align 4, !tbaa !58
  br label %8

8:                                                ; preds = %18, %1
  %9 = load i32, ptr %4, align 4, !tbaa !58
  %10 = icmp slt i32 %9, 3
  br i1 %10, label %12, label %11

11:                                               ; preds = %8
  call void @llvm.lifetime.end.p0(i64 4, ptr %4) #12
  br label %21

12:                                               ; preds = %8
  %13 = load ptr, ptr %3, align 8, !tbaa !39
  %14 = getelementptr inbounds nuw %struct.PhotoCDContext, ptr %13, i32 0, i32 10
  %15 = load i32, ptr %4, align 4, !tbaa !58
  %16 = sext i32 %15 to i64
  %17 = getelementptr inbounds [3 x %struct.VLC], ptr %14, i64 0, i64 %16
  call void @ff_vlc_free(ptr noundef %17)
  br label %18

18:                                               ; preds = %12
  %19 = load i32, ptr %4, align 4, !tbaa !58
  %20 = add nsw i32 %19, 1
  store i32 %20, ptr %4, align 4, !tbaa !58
  br label %8, !llvm.loop !70

21:                                               ; preds = %11
  call void @llvm.lifetime.end.p0(i64 8, ptr %3) #12
  ret i32 0
}