; Function Attrs: cold nounwind optsize uwtable
define internal noundef i32 @photocd_decode_close(ptr noundef readonly captures(none) %0) #2 {
  %2 = getelementptr inbounds nuw i8, ptr %0, i64 32
  %3 = load ptr, ptr %2, align 8, !tbaa !31
  %4 = getelementptr inbounds nuw i8, ptr %3, i64 1080
  br label %6

5:                                                ; preds = %6
  ret i32 0

6:                                                ; preds = %1, %6
  %indvars.iv = phi i64 [ 0, %1 ], [ %indvars.iv.next, %6 ]
  %7 = getelementptr inbounds nuw [3 x %struct.VLC], ptr %4, i64 0, i64 %indvars.iv
  tail call void @ff_vlc_free(ptr noundef nonnull %7) #11
  %indvars.iv.next = add nuw nsw i64 %indvars.iv, 1
  %exitcond.not = icmp eq i64 %indvars.iv.next, 3
  br i1 %exitcond.not, label %5, label %6, !llvm.loop !62
}